; Function Attrs: inlinehint mustprogress nofree norecurse nosync nounwind sspstrong willreturn memory(read, inaccessiblemem: none) uwtable
define internal fastcc i64 @internal_RSTRUCT_LEN(i64 noundef %0) unnamed_addr #4 {
  %2 = inttoptr i64 %0 to ptr
  %3 = load i64, ptr %2, align 8, !tbaa !11
  %4 = and i64 %3, 1040384
  %.not = icmp eq i64 %4, 0
  br i1 %.not, label %8, label %5

5:                                                ; preds = %1
  %6 = lshr i64 %3, 13
  %7 = and i64 %6, 127
  br label %11

8:                                                ; preds = %1
  %9 = getelementptr inbounds nuw i8, ptr %2, i64 16
  %10 = load i64, ptr %9, align 8, !tbaa !13
  br label %11

11:                                               ; preds = %8, %5
  %.0 = phi i64 [ %7, %5 ], [ %10, %8 ]
  ret i64 %.0
}